; ModuleID = '30/1781.c'
source_filename = "30/1781.c"
target datalayout = "e-m:e-p270:32:32-p271:32:32-p272:64:64-i64:64-f80:128-n8:16:32:64-S128"
target triple = "x86_64-pc-linux-gnu"

@.str = private unnamed_addr constant [3 x i8] c"%d\00", align 1
@.str.1 = private unnamed_addr constant [4 x i8] c"%d\0A\00", align 1

; Function Attrs: noinline nounwind uwtable
define dso_local i32 @main(i32 %0, i8** %1) #0 {
  %3 = alloca i32, align 4
  %4 = alloca i32, align 4
  %5 = alloca i8**, align 8
  %6 = alloca i32, align 4
  %7 = alloca i32, align 4
  %8 = alloca i32, align 4
  %9 = alloca i32, align 4
  store i32 0, i32* %3, align 4
  store i32 %0, i32* %4, align 4
  store i8** %1, i8*** %5, align 8
  store i32 0, i32* %9, align 4
  %10 = call i32 (i8*, ...) @__isoc99_scanf(i8* getelementptr inbounds ([3 x i8], [3 x i8]* @.str, i64 0, i64 0), i32* %6)
  store i32 1, i32* %8, align 4
  br label %11

11:                                               ; preds = %45, %2
  %12 = load i32, i32* %8, align 4
  %13 = load i32, i32* %6, align 4
  %14 = icmp sle i32 %12, %13
  br i1 %14, label %15, label %48

15:                                               ; preds = %11
  %16 = load i32, i32* %8, align 4
  %17 = srem i32 %16, 7
  %18 = icmp eq i32 %17, 0
  br i1 %18, label %19, label %20

19:                                               ; preds = %15
  br label %45

20:                                               ; preds = %15
  %21 = load i32, i32* %8, align 4
  %22 = sub nsw i32 %21, 7
  %23 = srem i32 %22, 10
  %24 = icmp eq i32 %23, 0
  br i1 %24, label %25, label %26

25:                                               ; preds = %20
  br label %45

26:                                               ; preds = %20
  %27 = load i32, i32* %8, align 4
  %28 = sub nsw i32 %27, 70
  %29 = icmp sle i32 %28, 9
  br i1 %29, label %30, label %35

30:                                               ; preds = %26
  %31 = load i32, i32* %8, align 4
  %32 = sub nsw i32 %31, 70
  %33 = icmp sge i32 %32, 0
  br i1 %33, label %34, label %35

34:                                               ; preds = %30
  br label %45

35:                                               ; preds = %30, %26
  %36 = load i32, i32* %8, align 4
  store i32 %36, i32* %7, align 4
  br label %37

37:                                               ; preds = %35
  br label %38

38:                                               ; preds = %37
  br label %39

39:                                               ; preds = %38
  %40 = load i32, i32* %7, align 4
  %41 = load i32, i32* %7, align 4
  %42 = mul nsw i32 %40, %41
  %43 = load i32, i32* %9, align 4
  %44 = add nsw i32 %43, %42
  store i32 %44, i32* %9, align 4
  br label %45

45:                                               ; preds = %39, %34, %25, %19
  %46 = load i32, i32* %8, align 4
  %47 = add nsw i32 %46, 1
  store i32 %47, i32* %8, align 4
  br label %11

48:                                               ; preds = %11
  %49 = load i32, i32* %9, align 4
  %50 = call i32 (i8*, ...) @printf(i8* getelementptr inbounds ([4 x i8], [4 x i8]* @.str.1, i64 0, i64 0), i32 %49)
  ret i32 0
}

declare dso_local i32 @__isoc99_scanf(i8*, ...) #1

declare dso_local i32 @printf(i8*, ...) #1


!llvm.module.flags = !{!0}
!llvm.ident = !{!1}

!0 = !{i32 1, !"wchar_size", i32 4}
!1 = !{!"clang version 10.0.0-4ubuntu1 "}
